; Function Attrs: nounwind uwtable
define ptr @l___private_Lean_Server_Completion_CompletionCollectors_0__Lean_Server_Completion_forEligibleDeclsWithCancellationM___rarg___lambda__4(ptr noundef %0, ptr noundef %1, ptr noundef %2, ptr noundef readnone captures(none) %3) local_unnamed_addr #0 {
  %5 = load ptr, ptr @l___private_Lean_Server_Completion_CompletionCollectors_0__Lean_Server_Completion_forEligibleDeclsWithCancellationM___rarg___lambda__4___closed__1, align 8, !tbaa !4
  %6 = tail call ptr @lean_apply_2(ptr noundef %0, ptr noundef nonnull inttoptr (i64 1 to ptr), ptr noundef %5) #5
  tail call void @lean_inc_heartbeat() #5
  %7 = tail call noalias ptr @mi_malloc_small(i64 noundef 32) #5
  %8 = icmp eq ptr %7, null
  br i1 %8, label %9, label %lean_alloc_closure.exit

9:                                                ; preds = %4
  tail call void @lean_internal_panic_out_of_memory() #6
  unreachable

lean_alloc_closure.exit:                          ; preds = %4
  %10 = getelementptr inbounds nuw i8, ptr %7, i64 4
  store i32 1, ptr %7, align 4, !tbaa !8
  store i32 -184549344, ptr %10, align 4
  %11 = getelementptr inbounds nuw i8, ptr %7, i64 8
  store ptr @l___private_Lean_Server_Completion_CompletionCollectors_0__Lean_Server_Completion_forEligibleDeclsWithCancellationM___rarg___lambda__3, ptr %11, align 8, !tbaa !4
  %12 = getelementptr inbounds nuw i8, ptr %7, i64 16
  store i16 2, ptr %12, align 8, !tbaa !16
  %13 = getelementptr inbounds nuw i8, ptr %7, i64 18
  store i16 1, ptr %13, align 2, !tbaa !16
  %14 = getelementptr inbounds nuw i8, ptr %7, i64 24
  store ptr %1, ptr %14, align 8, !tbaa !4
  %15 = tail call ptr @lean_apply_4(ptr noundef %2, ptr noundef nonnull inttoptr (i64 1 to ptr), ptr noundef nonnull inttoptr (i64 1 to ptr), ptr noundef %6, ptr noundef nonnull %7) #5
  ret ptr %15
}